; ModuleID = 'source-C-CXX/44/217.c'
source_filename = "source-C-CXX/44/217.c"
target datalayout = "e-m:e-p270:32:32-p271:32:32-p272:64:64-i64:64-f80:128-n8:16:32:64-S128"
target triple = "x86_64-pc-linux-gnu"

@.str = private unnamed_addr constant [5 x i8] c"%s%s\00", align 1
@.str.1 = private unnamed_addr constant [4 x i8] c"%d\0A\00", align 1

; Function Attrs: nofree nounwind sspstrong uwtable
define dso_local void @main() local_unnamed_addr #0 {
  %1 = alloca [50 x i8], align 16
  %2 = alloca [50 x i8], align 16
  %3 = getelementptr inbounds [50 x i8], [50 x i8]* %1, i64 0, i64 0
  call void @llvm.lifetime.start.p0i8(i64 50, i8* nonnull %3) #4
  %4 = getelementptr inbounds [50 x i8], [50 x i8]* %2, i64 0, i64 0
  call void @llvm.lifetime.start.p0i8(i64 50, i8* nonnull %4) #4
  %5 = call i32 (i8*, ...) @__isoc99_scanf(i8* getelementptr inbounds ([5 x i8], [5 x i8]* @.str, i64 0, i64 0), i8* nonnull %3, i8* nonnull %4)
  %6 = call i64 @strlen(i8* noundef nonnull %4) #5
  %7 = trunc i64 %6 to i32
  %8 = call i64 @strlen(i8* noundef nonnull %3) #5
  %9 = trunc i64 %8 to i32
  %10 = icmp sgt i32 %7, 0
  br i1 %10, label %11, label %41

11:                                               ; preds = %0
  %12 = icmp sgt i32 %9, 0
  br i1 %12, label %13, label %38

13:                                               ; preds = %11
  %14 = and i64 %6, 4294967295
  %15 = and i64 %8, 4294967295
  br label %16

16:                                               ; preds = %13, %30
  %17 = phi i64 [ 0, %13 ], [ %32, %30 ]
  %18 = phi i32 [ 0, %13 ], [ %31, %30 ]
  br label %19

19:                                               ; preds = %16, %34
  %20 = phi i64 [ 0, %16 ], [ %35, %34 ]
  %21 = phi i64 [ %17, %16 ], [ %36, %34 ]
  %22 = getelementptr inbounds [50 x i8], [50 x i8]* %1, i64 0, i64 %20
  %23 = load i8, i8* %22, align 1, !tbaa !5
  %24 = getelementptr inbounds [50 x i8], [50 x i8]* %2, i64 0, i64 %21
  %25 = load i8, i8* %24, align 1, !tbaa !5
  %26 = icmp eq i8 %23, %25
  br i1 %26, label %34, label %27

27:                                               ; preds = %19
  %28 = trunc i64 %20 to i32
  %29 = icmp eq i32 %28, %9
  br i1 %29, label %41, label %30

30:                                               ; preds = %27
  %31 = add nuw nsw i32 %18, 1
  %32 = add nuw nsw i64 %17, 1
  %33 = icmp eq i64 %32, %14
  br i1 %33, label %41, label %16, !llvm.loop !8

34:                                               ; preds = %19
  %35 = add nuw nsw i64 %20, 1
  %36 = add nuw nsw i64 %21, 1
  %37 = icmp eq i64 %35, %15
  br i1 %37, label %41, label %19, !llvm.loop !10

38:                                               ; preds = %11
  %39 = icmp eq i32 %9, 0
  %40 = select i1 %39, i32 0, i32 %7
  br label %41

41:                                               ; preds = %30, %27, %34, %38, %0
  %42 = phi i32 [ 0, %0 ], [ %40, %38 ], [ %18, %34 ], [ %18, %27 ], [ %7, %30 ]
  %43 = call i32 (i8*, ...) @printf(i8* nonnull dereferenceable(1) getelementptr inbounds ([4 x i8], [4 x i8]* @.str.1, i64 0, i64 0), i32 %42)
  call void @llvm.lifetime.end.p0i8(i64 50, i8* nonnull %4) #4
  call void @llvm.lifetime.end.p0i8(i64 50, i8* nonnull %3) #4
  ret void
}

; Function Attrs: argmemonly mustprogress nofree nosync nounwind willreturn
declare void @llvm.lifetime.start.p0i8(i64 immarg, i8* nocapture) #1

; Function Attrs: nofree nounwind
declare noundef i32 @__isoc99_scanf(i8* nocapture noundef readonly, ...) local_unnamed_addr #2

; Function Attrs: argmemonly mustprogress nofree nounwind readonly willreturn
declare i64 @strlen(i8* nocapture) local_unnamed_addr #3

; Function Attrs: nofree nounwind
declare noundef i32 @printf(i8* nocapture noundef readonly, ...) local_unnamed_addr #2

; Function Attrs: argmemonly mustprogress nofree nosync nounwind willreturn
declare void @llvm.lifetime.end.p0i8(i64 immarg, i8* nocapture) #1


!llvm.module.flags = !{!0, !1, !2, !3}
!llvm.ident = !{!4}

!0 = !{i32 1, !"wchar_size", i32 4}
!1 = !{i32 7, !"PIC Level", i32 2}
!2 = !{i32 7, !"PIE Level", i32 2}
!3 = !{i32 7, !"uwtable", i32 1}
!4 = !{!"clang version 13.0.0"}
!5 = !{!6, !6, i64 0}
!6 = !{!"omnipotent char", !7, i64 0}
!7 = !{!"Simple C/C++ TBAA"}
!8 = distinct !{!8, !9}
!9 = !{!"llvm.loop.mustprogress"}
!10 = distinct !{!10, !9}
